target datalayout = "e-m:e-p270:32:32-p271:32:32-p272:64:64-i64:64-i128:128-f80:128-n8:16:32:64-S128"
target triple = "x86_64-pc-linux-gnu"

%struct.Vector2 = type { float, float }

; Function Attrs: nounwind uwtable
define zeroext i1 @CheckCollisionPointCircle(<2 x float> %0, <2 x float> %1, float noundef %2) #0 {
  %4 = alloca %struct.Vector2, align 4
  %5 = alloca %struct.Vector2, align 4
  %6 = alloca float, align 4
  %7 = alloca i8, align 1
  %8 = alloca float, align 4
  store <2 x float> %0, ptr %4, align 4
  store <2 x float> %1, ptr %5, align 4
  store float %2, ptr %6, align 4
  call void @llvm.lifetime.start.p0(i64 1, ptr %7) #8
  store i8 0, ptr %7, align 1
  call void @llvm.lifetime.start.p0(i64 4, ptr %8) #8
  %9 = getelementptr inbounds nuw %struct.Vector2, ptr %4, i32 0, i32 0
  %10 = load float, ptr %9, align 4
  %11 = getelementptr inbounds nuw %struct.Vector2, ptr %5, i32 0, i32 0
  %12 = load float, ptr %11, align 4
  %13 = fsub float %10, %12
  %14 = getelementptr inbounds nuw %struct.Vector2, ptr %4, i32 0, i32 0
  %15 = load float, ptr %14, align 4
  %16 = getelementptr inbounds nuw %struct.Vector2, ptr %5, i32 0, i32 0
  %17 = load float, ptr %16, align 4
  %18 = fsub float %15, %17
  %19 = getelementptr inbounds nuw %struct.Vector2, ptr %4, i32 0, i32 1
  %20 = load float, ptr %19, align 4
  %21 = getelementptr inbounds nuw %struct.Vector2, ptr %5, i32 0, i32 1
  %22 = load float, ptr %21, align 4
  %23 = fsub float %20, %22
  %24 = getelementptr inbounds nuw %struct.Vector2, ptr %4, i32 0, i32 1
  %25 = load float, ptr %24, align 4
  %26 = getelementptr inbounds nuw %struct.Vector2, ptr %5, i32 0, i32 1
  %27 = load float, ptr %26, align 4
  %28 = fsub float %25, %27
  %29 = fmul float %23, %28
  %30 = call float @llvm.fmuladd.f32(float %13, float %18, float %29)
  store float %30, ptr %8, align 4
  %31 = load float, ptr %8, align 4
  %32 = load float, ptr %6, align 4
  %33 = load float, ptr %6, align 4
  %34 = fmul float %32, %33
  %35 = fcmp ole float %31, %34
  br i1 %35, label %36, label %37

36:                                               ; preds = %3
  store i8 1, ptr %7, align 1
  br label %37

37:                                               ; preds = %36, %3
  %38 = load i8, ptr %7, align 1, !range !3, !noundef !4
  %39 = trunc i8 %38 to i1
  call void @llvm.lifetime.end.p0(i64 4, ptr %8) #8
  call void @llvm.lifetime.end.p0(i64 1, ptr %7) #8
  ret i1 %39
}