; Function Attrs: mustprogress nofree norecurse nosync nounwind willreturn memory(none) uwtable
define zeroext i1 @CheckCollisionPointCircle(<2 x float> %0, <2 x float> %1, float noundef %2) local_unnamed_addr #11 {
  %4 = fsub <2 x float> %0, %1
  %5 = extractelement <2 x float> %4, i64 0
  %6 = fsub <2 x float> %0, %1
  %7 = fmul <2 x float> %6, %6
  %8 = extractelement <2 x float> %7, i64 1
  %9 = tail call float @llvm.fmuladd.f32(float %5, float %5, float %8)
  %10 = fmul float %2, %2
  %11 = fcmp ole float %9, %10
  ret i1 %11
}